; Function Attrs: mustprogress nounwind uwtable
define internal fastcc void @_ZN5clang24EvaluatedExprVisitorBaseIN4llvm14make_const_ptrEN12_GLOBAL__N_121DynamicThisUseCheckerEE15VisitChooseExprEPKNS_10ChooseExprE(ptr noundef nonnull align 8 dereferenceable(8) %0, ptr nocapture noundef readonly %1) unnamed_addr #0 align 2 {
  %3 = getelementptr inbounds nuw i8, ptr %1, i64 16
  %4 = load ptr, ptr %3, align 8
  %5 = getelementptr inbounds nuw i8, ptr %4, i64 1
  %6 = load i16, ptr %5, align 1
  %7 = and i16 %6, 256
  %.not = icmp eq i16 %7, 0
  br i1 %.not, label %8, label %17

8:                                                ; preds = %2
  %9 = getelementptr inbounds nuw i8, ptr %1, i64 48
  %10 = load i8, ptr %9, align 8
  %11 = trunc i8 %10 to i1
  %12 = getelementptr inbounds i8, ptr %1, i64 24
  %13 = load ptr, ptr %12, align 8
  %14 = getelementptr inbounds i8, ptr %1, i64 32
  %15 = load ptr, ptr %14, align 8
  %16 = select i1 %11, ptr %13, ptr %15
  tail call fastcc void @_ZN5clang15StmtVisitorBaseIN4llvm14make_const_ptrEN12_GLOBAL__N_121DynamicThisUseCheckerEvJEE5VisitEPKNS_4StmtE(ptr noundef nonnull align 1 dereferenceable(1) %0, ptr noundef %16)
  br label %17

17:                                               ; preds = %2, %8
  ret void
}